; ModuleID = 'source-C-CXX/31/565.c'
source_filename = "source-C-CXX/31/565.c"
target datalayout = "e-m:e-p270:32:32-p271:32:32-p272:64:64-i64:64-f80:128-n8:16:32:64-S128"
target triple = "x86_64-pc-linux-gnu"

@.str = private unnamed_addr constant [3 x i8] c"%d\00", align 1
@.str.1 = private unnamed_addr constant [5 x i8] c"%s%s\00", align 1

; Function Attrs: nofree nounwind sspstrong uwtable
define dso_local i32 @main() local_unnamed_addr #0 {
  %1 = alloca [100 x i32], align 16
  %2 = bitcast [100 x i32]* %1 to i8*
  %3 = alloca [100 x i8], align 16
  %4 = alloca [100 x i8], align 16
  %5 = alloca i32, align 4
  call void @llvm.lifetime.start.p0i8(i64 400, i8* nonnull %2) #6
  %6 = getelementptr inbounds [100 x i8], [100 x i8]* %3, i64 0, i64 0
  call void @llvm.lifetime.start.p0i8(i64 100, i8* nonnull %6) #6
  %7 = getelementptr inbounds [100 x i8], [100 x i8]* %4, i64 0, i64 0
  call void @llvm.lifetime.start.p0i8(i64 100, i8* nonnull %7) #6
  %8 = bitcast i32* %5 to i8*
  call void @llvm.lifetime.start.p0i8(i64 4, i8* nonnull %8) #6
  %9 = call i32 (i8*, ...) @__isoc99_scanf(i8* getelementptr inbounds ([3 x i8], [3 x i8]* @.str, i64 0, i64 0), i32* nonnull %5)
  %10 = load i32, i32* %5, align 4, !tbaa !5
  %11 = icmp sgt i32 %10, 0
  br i1 %11, label %12, label %82

12:                                               ; preds = %0, %77
  %13 = phi i32 [ %79, %77 ], [ 0, %0 ]
  %14 = call i32 (i8*, ...) @__isoc99_scanf(i8* getelementptr inbounds ([5 x i8], [5 x i8]* @.str.1, i64 0, i64 0), i8* nonnull %6, i8* nonnull %7)
  %15 = call i64 @strlen(i8* noundef nonnull %6) #7
  %16 = call i64 @strlen(i8* noundef nonnull %7) #7
  call void @llvm.memset.p0i8.i64(i8* noundef nonnull align 16 dereferenceable(400) %2, i8 0, i64 400, i1 false)
  %17 = trunc i64 %15 to i32
  %18 = icmp sgt i32 %17, 0
  br i1 %18, label %19, label %57

19:                                               ; preds = %12
  %20 = trunc i64 %16 to i32
  %21 = and i64 %15, 4294967295
  br label %22

22:                                               ; preds = %19, %53
  %23 = phi i64 [ %21, %19 ], [ %56, %53 ]
  %24 = phi i32 [ %20, %19 ], [ %54, %53 ]
  %25 = phi i32 [ %17, %19 ], [ %27, %53 ]
  %26 = icmp sgt i32 %24, 0
  %27 = add nsw i32 %25, -1
  %28 = zext i32 %27 to i64
  %29 = getelementptr inbounds [100 x i8], [100 x i8]* %3, i64 0, i64 %28
  %30 = load i8, i8* %29, align 1, !tbaa !9
  %31 = sext i8 %30 to i32
  br i1 %26, label %32, label %39

32:                                               ; preds = %22
  %33 = add nsw i32 %24, -1
  %34 = zext i32 %33 to i64
  %35 = getelementptr inbounds [100 x i8], [100 x i8]* %4, i64 0, i64 %34
  %36 = load i8, i8* %35, align 1, !tbaa !9
  %37 = sext i8 %36 to i32
  %38 = sub nsw i32 %31, %37
  br label %41

39:                                               ; preds = %22
  %40 = add nsw i32 %31, -48
  br label %41

41:                                               ; preds = %39, %32
  %42 = phi i32 [ %40, %39 ], [ %38, %32 ]
  %43 = getelementptr inbounds [100 x i32], [100 x i32]* %1, i64 0, i64 %28
  store i32 %42, i32* %43, align 4, !tbaa !5
  %44 = icmp slt i32 %42, 0
  br i1 %44, label %45, label %53

45:                                               ; preds = %41
  %46 = getelementptr inbounds [100 x i32], [100 x i32]* %1, i64 0, i64 %28
  %47 = add nsw i32 %25, -2
  %48 = sext i32 %47 to i64
  %49 = getelementptr inbounds [100 x i8], [100 x i8]* %3, i64 0, i64 %48
  %50 = load i8, i8* %49, align 1, !tbaa !9
  %51 = add i8 %50, -1
  store i8 %51, i8* %49, align 1, !tbaa !9
  %52 = add nsw i32 %42, 10
  store i32 %52, i32* %46, align 4, !tbaa !5
  br label %53

53:                                               ; preds = %41, %45
  %54 = add nsw i32 %24, -1
  %55 = icmp sgt i64 %23, 1
  %56 = add nsw i64 %23, -1
  br i1 %55, label %22, label %57, !llvm.loop !10

57:                                               ; preds = %53, %12
  br label %58

58:                                               ; preds = %57, %58
  %59 = phi i64 [ %63, %58 ], [ 0, %57 ]
  %60 = getelementptr inbounds [100 x i32], [100 x i32]* %1, i64 0, i64 %59
  %61 = load i32, i32* %60, align 4, !tbaa !5
  %62 = icmp eq i32 %61, 0
  %63 = add nuw i64 %59, 1
  br i1 %62, label %58, label %64, !llvm.loop !12

64:                                               ; preds = %58
  %65 = trunc i64 %59 to i32
  %66 = icmp slt i32 %65, %17
  br i1 %66, label %67, label %77

67:                                               ; preds = %64
  %68 = and i64 %59, 4294967295
  br label %69

69:                                               ; preds = %67, %69
  %70 = phi i64 [ %68, %67 ], [ %74, %69 ]
  %71 = getelementptr inbounds [100 x i32], [100 x i32]* %1, i64 0, i64 %70
  %72 = load i32, i32* %71, align 4, !tbaa !5
  %73 = call i32 (i8*, ...) @printf(i8* nonnull dereferenceable(1) getelementptr inbounds ([3 x i8], [3 x i8]* @.str, i64 0, i64 0), i32 %72)
  %74 = add nuw nsw i64 %70, 1
  %75 = trunc i64 %74 to i32
  %76 = icmp eq i32 %75, %17
  br i1 %76, label %77, label %69, !llvm.loop !13

77:                                               ; preds = %69, %64
  %78 = call i32 @putchar(i32 10)
  %79 = add nuw nsw i32 %13, 1
  %80 = load i32, i32* %5, align 4, !tbaa !5
  %81 = icmp slt i32 %79, %80
  br i1 %81, label %12, label %82, !llvm.loop !14

82:                                               ; preds = %77, %0
  call void @llvm.lifetime.end.p0i8(i64 4, i8* nonnull %8) #6
  call void @llvm.lifetime.end.p0i8(i64 100, i8* nonnull %7) #6
  call void @llvm.lifetime.end.p0i8(i64 100, i8* nonnull %6) #6
  call void @llvm.lifetime.end.p0i8(i64 400, i8* nonnull %2) #6
  ret i32 0
}

; Function Attrs: argmemonly mustprogress nofree nosync nounwind willreturn
declare void @llvm.lifetime.start.p0i8(i64 immarg, i8* nocapture) #1

; Function Attrs: nofree nounwind
declare noundef i32 @__isoc99_scanf(i8* nocapture noundef readonly, ...) local_unnamed_addr #2

; Function Attrs: argmemonly mustprogress nofree nounwind readonly willreturn
declare i64 @strlen(i8* nocapture) local_unnamed_addr #3

; Function Attrs: nofree nounwind
declare noundef i32 @printf(i8* nocapture noundef readonly, ...) local_unnamed_addr #2

; Function Attrs: argmemonly mustprogress nofree nosync nounwind willreturn
declare void @llvm.lifetime.end.p0i8(i64 immarg, i8* nocapture) #1

; Function Attrs: nofree nounwind
declare noundef i32 @putchar(i32 noundef) local_unnamed_addr #4

; Function Attrs: argmemonly nofree nounwind willreturn writeonly
declare void @llvm.memset.p0i8.i64(i8* nocapture writeonly, i8, i64, i1 immarg) #5


!llvm.module.flags = !{!0, !1, !2, !3}
!llvm.ident = !{!4}

!0 = !{i32 1, !"wchar_size", i32 4}
!1 = !{i32 7, !"PIC Level", i32 2}
!2 = !{i32 7, !"PIE Level", i32 2}
!3 = !{i32 7, !"uwtable", i32 1}
!4 = !{!"clang version 13.0.0"}
!5 = !{!6, !6, i64 0}
!6 = !{!"int", !7, i64 0}
!7 = !{!"omnipotent char", !8, i64 0}
!8 = !{!"Simple C/C++ TBAA"}
!9 = !{!7, !7, i64 0}
!10 = distinct !{!10, !11}
!11 = !{!"llvm.loop.mustprogress"}
!12 = distinct !{!12, !11}
!13 = distinct !{!13, !11}
!14 = distinct !{!14, !11}
